target datalayout = "e-m:e-p270:32:32-p271:32:32-p272:64:64-i64:64-i128:128-f80:128-n8:16:32:64-S128"
target triple = "x86_64-pc-linux-gnu"

%struct.ref_sorting = type { ptr, i32, i32 }

; Function Attrs: nounwind uwtable
define dso_local void @ref_sorting_release(ptr noundef %0) #0 {
  %2 = alloca ptr, align 8
  %3 = alloca ptr, align 8
  store ptr %0, ptr %2, align 8, !tbaa !134
  br label %4

4:                                                ; preds = %7, %1
  %5 = load ptr, ptr %2, align 8, !tbaa !134
  %6 = icmp ne ptr %5, null
  br i1 %6, label %7, label %13

7:                                                ; preds = %4
  call void @llvm.lifetime.start.p0(i64 8, ptr %3) #11
  %8 = load ptr, ptr %2, align 8, !tbaa !134
  %9 = getelementptr inbounds nuw %struct.ref_sorting, ptr %8, i32 0, i32 0
  %10 = load ptr, ptr %9, align 8, !tbaa !140
  store ptr %10, ptr %3, align 8, !tbaa !134
  %11 = load ptr, ptr %2, align 8, !tbaa !134
  call void @free(ptr noundef %11) #11
  %12 = load ptr, ptr %3, align 8, !tbaa !134
  store ptr %12, ptr %2, align 8, !tbaa !134
  call void @llvm.lifetime.end.p0(i64 8, ptr %3) #11
  br label %4, !llvm.loop !194

13:                                               ; preds = %4
  ret void
}