; Function Attrs: nounwind uwtable
define dso_local void @ref_sorting_release(ptr noundef %0) local_unnamed_addr #0 {
  %.not4 = icmp eq ptr %0, null
  br i1 %.not4, label %._crit_edge, label %.lr.ph

.lr.ph:                                           ; preds = %1, %.lr.ph
  %.05 = phi ptr [ %2, %.lr.ph ], [ %0, %1 ]
  %2 = load ptr, ptr %.05, align 8, !tbaa !124
  tail call void @free(ptr noundef nonnull %.05) #23
  %.not = icmp eq ptr %2, null
  br i1 %.not, label %._crit_edge, label %.lr.ph, !llvm.loop !196

._crit_edge:                                      ; preds = %.lr.ph, %1
  ret void
}